target datalayout = "e-m:e-p270:32:32-p271:32:32-p272:64:64-i64:64-i128:128-f80:128-n8:16:32:64-S128"
target triple = "x86_64-pc-linux-gnu"

%union.pthread_mutex_t = type { %struct.__pthread_mutex_s }
%struct.__pthread_mutex_s = type { i32, i32, i32, i32, i32, i16, i16, %struct.__pthread_internal_list }
%struct.__pthread_internal_list = type { ptr, ptr }
%struct.pmix_tma = type { ptr, ptr, ptr, ptr, ptr, ptr, ptr, ptr }
%struct.pmix_mca_base_var_enum_t = type { %struct.pmix_object_t, i8, ptr, ptr, ptr, ptr, ptr, ptr, i32, ptr }
%struct.pmix_object_t = type { %union.pthread_mutex_t, ptr, i32, %struct.pmix_tma }
%struct.pmix_mca_base_var_enum_value_t = type { i32, ptr }

; Function Attrs: nounwind uwtable
define internal void @pmix_mca_base_var_enum_destructor(ptr noundef %0) #0 {
  %2 = alloca ptr, align 8
  %3 = alloca i32, align 4
  store ptr %0, ptr %2, align 8, !tbaa !3
  %4 = load ptr, ptr %2, align 8, !tbaa !3
  %5 = getelementptr inbounds nuw %struct.pmix_mca_base_var_enum_t, ptr %4, i32 0, i32 2
  %6 = load ptr, ptr %5, align 8, !tbaa !22
  %7 = icmp ne ptr %6, null
  br i1 %7, label %8, label %12

8:                                                ; preds = %1
  %9 = load ptr, ptr %2, align 8, !tbaa !3
  %10 = getelementptr inbounds nuw %struct.pmix_mca_base_var_enum_t, ptr %9, i32 0, i32 2
  %11 = load ptr, ptr %10, align 8, !tbaa !22
  call void @free(ptr noundef %11) #13
  br label %12

12:                                               ; preds = %8, %1
  %13 = load ptr, ptr %2, align 8, !tbaa !3
  %14 = getelementptr inbounds nuw %struct.pmix_mca_base_var_enum_t, ptr %13, i32 0, i32 9
  %15 = load ptr, ptr %14, align 8, !tbaa !23
  %16 = icmp ne ptr %15, null
  br i1 %16, label %17, label %41

17:                                               ; preds = %12
  call void @llvm.lifetime.start.p0(i64 4, ptr %3) #13
  store i32 0, ptr %3, align 4, !tbaa !24
  br label %18

18:                                               ; preds = %34, %17
  %19 = load i32, ptr %3, align 4, !tbaa !24
  %20 = load ptr, ptr %2, align 8, !tbaa !3
  %21 = getelementptr inbounds nuw %struct.pmix_mca_base_var_enum_t, ptr %20, i32 0, i32 8
  %22 = load i32, ptr %21, align 8, !tbaa !25
  %23 = icmp slt i32 %19, %22
  br i1 %23, label %25, label %24

24:                                               ; preds = %18
  call void @llvm.lifetime.end.p0(i64 4, ptr %3) #13
  br label %37

25:                                               ; preds = %18
  %26 = load ptr, ptr %2, align 8, !tbaa !3
  %27 = getelementptr inbounds nuw %struct.pmix_mca_base_var_enum_t, ptr %26, i32 0, i32 9
  %28 = load ptr, ptr %27, align 8, !tbaa !23
  %29 = load i32, ptr %3, align 4, !tbaa !24
  %30 = sext i32 %29 to i64
  %31 = getelementptr inbounds %struct.pmix_mca_base_var_enum_value_t, ptr %28, i64 %30
  %32 = getelementptr inbounds nuw %struct.pmix_mca_base_var_enum_value_t, ptr %31, i32 0, i32 1
  %33 = load ptr, ptr %32, align 8, !tbaa !26
  call void @free(ptr noundef %33) #13
  br label %34

34:                                               ; preds = %25
  %35 = load i32, ptr %3, align 4, !tbaa !24
  %36 = add nsw i32 %35, 1
  store i32 %36, ptr %3, align 4, !tbaa !24
  br label %18, !llvm.loop !28

37:                                               ; preds = %24
  %38 = load ptr, ptr %2, align 8, !tbaa !3
  %39 = getelementptr inbounds nuw %struct.pmix_mca_base_var_enum_t, ptr %38, i32 0, i32 9
  %40 = load ptr, ptr %39, align 8, !tbaa !23
  call void @free(ptr noundef %40) #13
  br label %41

41:                                               ; preds = %37, %12
  ret void
}