; Function Attrs: nounwind uwtable
define internal void @pmix_mca_base_var_enum_destructor(ptr noundef readonly captures(none) %0) #1 {
  %2 = getelementptr inbounds nuw i8, ptr %0, i64 128
  %3 = load ptr, ptr %2, align 8, !tbaa !20
  %.not = icmp eq ptr %3, null
  br i1 %.not, label %5, label %4

4:                                                ; preds = %1
  tail call void @free(ptr noundef nonnull %3) #21
  br label %5

5:                                                ; preds = %4, %1
  %6 = getelementptr inbounds nuw i8, ptr %0, i64 184
  %7 = load ptr, ptr %6, align 8, !tbaa !21
  %.not9 = icmp eq ptr %7, null
  br i1 %.not9, label %18, label %.preheader

.preheader:                                       ; preds = %5
  %8 = getelementptr inbounds nuw i8, ptr %0, i64 176
  %9 = load i32, ptr %8, align 8, !tbaa !22
  %10 = icmp sgt i32 %9, 0
  br i1 %10, label %.lr.ph, label %._crit_edge

._crit_edge.loopexit:                             ; preds = %.lr.ph
  %.pre = load ptr, ptr %6, align 8, !tbaa !21
  br label %._crit_edge

._crit_edge:                                      ; preds = %._crit_edge.loopexit, %.preheader
  %11 = phi ptr [ %.pre, %._crit_edge.loopexit ], [ %7, %.preheader ]
  tail call void @free(ptr noundef %11) #21
  br label %18

.lr.ph:                                           ; preds = %.preheader, %.lr.ph
  %indvars.iv = phi i64 [ %indvars.iv.next, %.lr.ph ], [ 0, %.preheader ]
  %12 = load ptr, ptr %6, align 8, !tbaa !21
  %13 = getelementptr inbounds nuw %struct.pmix_mca_base_var_enum_value_t, ptr %12, i64 %indvars.iv, i32 1
  %14 = load ptr, ptr %13, align 8, !tbaa !23
  tail call void @free(ptr noundef %14) #21
  %indvars.iv.next = add nuw nsw i64 %indvars.iv, 1
  %15 = load i32, ptr %8, align 8, !tbaa !22
  %16 = sext i32 %15 to i64
  %17 = icmp slt i64 %indvars.iv.next, %16
  br i1 %17, label %.lr.ph, label %._crit_edge.loopexit, !llvm.loop !25

18:                                               ; preds = %._crit_edge, %5
  ret void
}